; ModuleID = '17/267.c'
source_filename = "17/267.c"
target datalayout = "e-m:e-p270:32:32-p271:32:32-p272:64:64-i64:64-f80:128-n8:16:32:64-S128"
target triple = "x86_64-pc-linux-gnu"

@.str = private unnamed_addr constant [3 x i8] c"%s\00", align 1

; Function Attrs: noinline nounwind uwtable
define dso_local i32 @main() #0 {
  %1 = alloca i32, align 4
  %2 = alloca [300 x i8], align 16
  %3 = alloca [300 x i8], align 16
  %4 = alloca [300 x i32], align 16
  %5 = alloca i32, align 4
  %6 = alloca i32, align 4
  %7 = alloca i32, align 4
  store i32 0, i32* %1, align 4
  br label %8

8:                                                ; preds = %92, %0
  %9 = getelementptr inbounds [300 x i8], [300 x i8]* %2, i64 0, i64 0
  %10 = call i32 (i8*, ...) @__isoc99_scanf(i8* getelementptr inbounds ([3 x i8], [3 x i8]* @.str, i64 0, i64 0), i8* %9)
  %11 = icmp eq i32 %10, -1
  br i1 %11, label %12, label %13

12:                                               ; preds = %8
  br label %93

13:                                               ; preds = %8
  %14 = getelementptr inbounds [300 x i8], [300 x i8]* %2, i64 0, i64 0
  %15 = load i8, i8* %14, align 16
  %16 = sext i8 %15 to i32
  %17 = icmp eq i32 %16, 0
  br i1 %17, label %18, label %19

18:                                               ; preds = %13
  br label %93

19:                                               ; preds = %13
  %20 = getelementptr inbounds [300 x i8], [300 x i8]* %2, i64 0, i64 0
  %21 = call i64 @strlen(i8* %20) #3
  %22 = trunc i64 %21 to i32
  store i32 %22, i32* %5, align 4
  %23 = load i32, i32* %5, align 4
  %24 = icmp eq i32 %23, 0
  br i1 %24, label %25, label %26

25:                                               ; preds = %19
  br label %93

26:                                               ; preds = %19
  store i32 0, i32* %7, align 4
  store i32 0, i32* %6, align 4
  br label %27

27:                                               ; preds = %66, %26
  %28 = load i32, i32* %6, align 4
  %29 = load i32, i32* %5, align 4
  %30 = icmp slt i32 %28, %29
  br i1 %30, label %31, label %69

31:                                               ; preds = %27
  %32 = load i32, i32* %6, align 4
  %33 = sext i32 %32 to i64
  %34 = getelementptr inbounds [300 x i8], [300 x i8]* %3, i64 0, i64 %33
  store i8 32, i8* %34, align 1
  %35 = load i32, i32* %6, align 4
  %36 = sext i32 %35 to i64
  %37 = getelementptr inbounds [300 x i8], [300 x i8]* %2, i64 0, i64 %36
  %38 = load i8, i8* %37, align 1
  %39 = sext i8 %38 to i32
  %40 = icmp eq i32 %39, 40
  br i1 %40, label %41, label %48

41:                                               ; preds = %31
  %42 = load i32, i32* %7, align 4
  %43 = add nsw i32 %42, 1
  store i32 %43, i32* %7, align 4
  %44 = load i32, i32* %6, align 4
  %45 = load i32, i32* %7, align 4
  %46 = sext i32 %45 to i64
  %47 = getelementptr inbounds [300 x i32], [300 x i32]* %4, i64 0, i64 %46
  store i32 %44, i32* %47, align 4
  br label %48

48:                                               ; preds = %41, %31
  %49 = load i32, i32* %6, align 4
  %50 = sext i32 %49 to i64
  %51 = getelementptr inbounds [300 x i8], [300 x i8]* %2, i64 0, i64 %50
  %52 = load i8, i8* %51, align 1
  %53 = sext i8 %52 to i32
  %54 = icmp eq i32 %53, 41
  br i1 %54, label %55, label %65

55:                                               ; preds = %48
  %56 = load i32, i32* %7, align 4
  %57 = icmp eq i32 %56, 0
  br i1 %57, label %58, label %62

58:                                               ; preds = %55
  %59 = load i32, i32* %6, align 4
  %60 = sext i32 %59 to i64
  %61 = getelementptr inbounds [300 x i8], [300 x i8]* %3, i64 0, i64 %60
  store i8 63, i8* %61, align 1
  br label %66

62:                                               ; preds = %55
  %63 = load i32, i32* %7, align 4
  %64 = add nsw i32 %63, -1
  store i32 %64, i32* %7, align 4
  br label %65

65:                                               ; preds = %62, %48
  br label %66

66:                                               ; preds = %65, %58
  %67 = load i32, i32* %6, align 4
  %68 = add nsw i32 %67, 1
  store i32 %68, i32* %6, align 4
  br label %27

69:                                               ; preds = %27
  store i32 1, i32* %6, align 4
  br label %70

70:                                               ; preds = %81, %69
  %71 = load i32, i32* %6, align 4
  %72 = load i32, i32* %7, align 4
  %73 = icmp sle i32 %71, %72
  br i1 %73, label %74, label %84

74:                                               ; preds = %70
  %75 = load i32, i32* %6, align 4
  %76 = sext i32 %75 to i64
  %77 = getelementptr inbounds [300 x i32], [300 x i32]* %4, i64 0, i64 %76
  %78 = load i32, i32* %77, align 4
  %79 = sext i32 %78 to i64
  %80 = getelementptr inbounds [300 x i8], [300 x i8]* %3, i64 0, i64 %79
  store i8 36, i8* %80, align 1
  br label %81

81:                                               ; preds = %74
  %82 = load i32, i32* %6, align 4
  %83 = add nsw i32 %82, 1
  store i32 %83, i32* %6, align 4
  br label %70

84:                                               ; preds = %70
  %85 = load i32, i32* %5, align 4
  %86 = sext i32 %85 to i64
  %87 = getelementptr inbounds [300 x i8], [300 x i8]* %3, i64 0, i64 %86
  store i8 0, i8* %87, align 1
  %88 = getelementptr inbounds [300 x i8], [300 x i8]* %2, i64 0, i64 0
  %89 = call i32 @puts(i8* %88)
  %90 = getelementptr inbounds [300 x i8], [300 x i8]* %3, i64 0, i64 0
  %91 = call i32 @puts(i8* %90)
  br label %92

92:                                               ; preds = %84
  br i1 true, label %8, label %93

93:                                               ; preds = %92, %25, %18, %12
  %94 = load i32, i32* %1, align 4
  ret i32 %94
}

declare dso_local i32 @__isoc99_scanf(i8*, ...) #1

; Function Attrs: nounwind readonly
declare dso_local i64 @strlen(i8*) #2

declare dso_local i32 @puts(i8*) #1


!llvm.module.flags = !{!0}
!llvm.ident = !{!1}

!0 = !{i32 1, !"wchar_size", i32 4}
!1 = !{!"clang version 10.0.0-4ubuntu1 "}
